; Function Attrs: mustprogress nofree norecurse nosync nounwind willreturn memory(read, inaccessiblemem: none) uwtable
define i32 @fstReaderGetCurrentScopeLen(ptr noundef readonly captures(address_is_null) %0) local_unnamed_addr #24 {
  %.not = icmp eq ptr %0, null
  br i1 %.not, label %8, label %2

2:                                                ; preds = %1
  %3 = getelementptr inbounds nuw i8, ptr %0, i64 632
  %4 = load ptr, ptr %3, align 8, !tbaa !129
  %.not6 = icmp eq ptr %4, null
  br i1 %.not6, label %8, label %5

5:                                                ; preds = %2
  %6 = getelementptr inbounds nuw i8, ptr %4, i64 16
  %7 = load i32, ptr %6, align 8, !tbaa !133
  br label %8

8:                                                ; preds = %1, %2, %5
  %.0 = phi i32 [ %7, %5 ], [ 0, %2 ], [ 0, %1 ]
  ret i32 %.0
}